target datalayout = "e-m:e-p270:32:32-p271:32:32-p272:64:64-i64:64-i128:128-f80:128-n8:16:32:64-S128"
target triple = "x86_64-pc-linux-gnu"

%struct.IDAMemRec = type { double, ptr, ptr, i32, double, double, ptr, i32, ptr, ptr, i32, ptr, ptr, i32, i32, double, double, ptr, i32, i32, i32, ptr, ptr, i32, ptr, ptr, ptr, i32, double, i32, i32, double, ptr, ptr, i32, ptr, ptr, i32, i32, i32, double, ptr, ptr, [6 x ptr], [6 x double], [6 x double], [6 x double], [6 x double], [6 x double], ptr, ptr, ptr, ptr, ptr, ptr, ptr, ptr, ptr, ptr, ptr, ptr, ptr, ptr, ptr, [6 x ptr], ptr, ptr, ptr, ptr, [6 x ptr], ptr, ptr, ptr, ptr, ptr, ptr, ptr, ptr, ptr, ptr, ptr, ptr, ptr, ptr, [6 x ptr], ptr, ptr, ptr, ptr, ptr, double, ptr, ptr, i32, i32, i32, i32, i32, i32, i32, double, double, double, i32, double, i32, i32, i32, i32, double, double, double, double, double, double, double, double, double, double, double, double, double, double, i32, i32, i32, i32, i32, i64, double, i32, i64, i64, i64, i64, i64, i64, i64, i64, i64, i64, i64, i64, i64, i64, i64, i64, i64, i64, i64, i64, i64, i64, i64, i64, ptr, ptr, ptr, i32, i32, i32, i32, i32, i32, i32, i32, i32, i32, i32, i32, i32, ptr, ptr, ptr, ptr, ptr, ptr, i32, i32, i32, i32, i32, i32, double, double, double, ptr, i32, ptr, ptr, double, double, double, ptr, ptr, ptr, double, double, i32, i32, i64, ptr, i32, i32, ptr, i32 }
%struct._generic_N_Vector = type { ptr, ptr }
%struct._generic_N_Vector_Ops = type { ptr, ptr, ptr, ptr, ptr, ptr, ptr, ptr, ptr, ptr, ptr, ptr, ptr, ptr, ptr, ptr, ptr, ptr, ptr, ptr, ptr, ptr, ptr, ptr, ptr }
%struct.IDADlsMemRec = type { i32, i64, i64, i64, i64, i32, ptr, ptr, ptr, ptr, ptr, ptr, i64, i64, i64 }

@.str = private unnamed_addr constant [10 x i8] c"IDASDENSE\00", align 1
@.str.1 = private unnamed_addr constant [9 x i8] c"IDADense\00", align 1
@.str.2 = private unnamed_addr constant [27 x i8] c"Integrator memory is NULL.\00", align 1
@.str.3 = private unnamed_addr constant [48 x i8] c"A required vector operation is not implemented.\00", align 1
@.str.4 = private unnamed_addr constant [25 x i8] c"A memory request failed.\00", align 1

; Function Attrs: nounwind uwtable
define i32 @IDADense(ptr noundef %0, i64 noundef %1) #0 {
  %3 = alloca i32, align 4
  %4 = alloca ptr, align 8
  %5 = alloca i64, align 8
  %6 = alloca ptr, align 8
  %7 = alloca ptr, align 8
  %8 = alloca i32, align 4
  %9 = alloca i32, align 4
  store ptr %0, ptr %4, align 8, !tbaa !3
  store i64 %1, ptr %5, align 8, !tbaa !7
  call void @llvm.lifetime.start.p0(i64 8, ptr %6) #5
  call void @llvm.lifetime.start.p0(i64 8, ptr %7) #5
  call void @llvm.lifetime.start.p0(i64 4, ptr %8) #5
  %10 = load ptr, ptr %4, align 8, !tbaa !3
  %11 = icmp eq ptr %10, null
  br i1 %11, label %12, label %13

12:                                               ; preds = %2
  call void (ptr, i32, ptr, ptr, ptr, ...) @IDAProcessError(ptr noundef null, i32 noundef -1, ptr noundef @.str, ptr noundef @.str.1, ptr noundef @.str.2)
  store i32 -1, ptr %3, align 4
  store i32 1, ptr %9, align 4
  br label %112

13:                                               ; preds = %2
  %14 = load ptr, ptr %4, align 8, !tbaa !3
  store ptr %14, ptr %6, align 8, !tbaa !9
  %15 = load ptr, ptr %6, align 8, !tbaa !9
  %16 = getelementptr inbounds nuw %struct.IDAMemRec, ptr %15, i32 0, i32 58
  %17 = load ptr, ptr %16, align 8, !tbaa !11
  %18 = getelementptr inbounds nuw %struct._generic_N_Vector, ptr %17, i32 0, i32 1
  %19 = load ptr, ptr %18, align 8, !tbaa !21
  %20 = getelementptr inbounds nuw %struct._generic_N_Vector_Ops, ptr %19, i32 0, i32 4
  %21 = load ptr, ptr %20, align 8, !tbaa !24
  %22 = icmp eq ptr %21, null
  br i1 %22, label %32, label %23

23:                                               ; preds = %13
  %24 = load ptr, ptr %6, align 8, !tbaa !9
  %25 = getelementptr inbounds nuw %struct.IDAMemRec, ptr %24, i32 0, i32 58
  %26 = load ptr, ptr %25, align 8, !tbaa !11
  %27 = getelementptr inbounds nuw %struct._generic_N_Vector, ptr %26, i32 0, i32 1
  %28 = load ptr, ptr %27, align 8, !tbaa !21
  %29 = getelementptr inbounds nuw %struct._generic_N_Vector_Ops, ptr %28, i32 0, i32 5
  %30 = load ptr, ptr %29, align 8, !tbaa !26
  %31 = icmp eq ptr %30, null
  br i1 %31, label %32, label %34

32:                                               ; preds = %23, %13
  %33 = load ptr, ptr %6, align 8, !tbaa !9
  call void (ptr, i32, ptr, ptr, ptr, ...) @IDAProcessError(ptr noundef %33, i32 noundef -3, ptr noundef @.str, ptr noundef @.str.1, ptr noundef @.str.3)
  store i32 -3, ptr %3, align 4
  store i32 1, ptr %9, align 4
  br label %112

34:                                               ; preds = %23
  %35 = load ptr, ptr %6, align 8, !tbaa !9
  %36 = getelementptr inbounds nuw %struct.IDAMemRec, ptr %35, i32 0, i32 175
  %37 = load ptr, ptr %36, align 8, !tbaa !27
  %38 = icmp ne ptr %37, null
  br i1 %38, label %39, label %45

39:                                               ; preds = %34
  %40 = load ptr, ptr %6, align 8, !tbaa !9
  %41 = getelementptr inbounds nuw %struct.IDAMemRec, ptr %40, i32 0, i32 175
  %42 = load ptr, ptr %41, align 8, !tbaa !27
  %43 = load ptr, ptr %6, align 8, !tbaa !9
  %44 = call i32 %42(ptr noundef %43)
  store i32 %44, ptr %8, align 4, !tbaa !28
  br label %45

45:                                               ; preds = %39, %34
  %46 = load ptr, ptr %6, align 8, !tbaa !9
  %47 = getelementptr inbounds nuw %struct.IDAMemRec, ptr %46, i32 0, i32 171
  store ptr @IDADenseInit, ptr %47, align 8, !tbaa !29
  %48 = load ptr, ptr %6, align 8, !tbaa !9
  %49 = getelementptr inbounds nuw %struct.IDAMemRec, ptr %48, i32 0, i32 172
  store ptr @IDADenseSetup, ptr %49, align 8, !tbaa !30
  %50 = load ptr, ptr %6, align 8, !tbaa !9
  %51 = getelementptr inbounds nuw %struct.IDAMemRec, ptr %50, i32 0, i32 173
  store ptr @IDADenseSolve, ptr %51, align 8, !tbaa !31
  %52 = load ptr, ptr %6, align 8, !tbaa !9
  %53 = getelementptr inbounds nuw %struct.IDAMemRec, ptr %52, i32 0, i32 174
  store ptr null, ptr %53, align 8, !tbaa !32
  %54 = load ptr, ptr %6, align 8, !tbaa !9
  %55 = getelementptr inbounds nuw %struct.IDAMemRec, ptr %54, i32 0, i32 175
  store ptr @IDADenseFree, ptr %55, align 8, !tbaa !27
  store ptr null, ptr %7, align 8, !tbaa !33
  %56 = call noalias ptr @malloc(i64 noundef 120) #6
  store ptr %56, ptr %7, align 8, !tbaa !33
  %57 = load ptr, ptr %7, align 8, !tbaa !33
  %58 = icmp eq ptr %57, null
  br i1 %58, label %59, label %61

59:                                               ; preds = %45
  %60 = load ptr, ptr %6, align 8, !tbaa !9
  call void (ptr, i32, ptr, ptr, ptr, ...) @IDAProcessError(ptr noundef %60, i32 noundef -4, ptr noundef @.str, ptr noundef @.str.1, ptr noundef @.str.4)
  store i32 -4, ptr %3, align 4
  store i32 1, ptr %9, align 4
  br label %112

61:                                               ; preds = %45
  %62 = load ptr, ptr %7, align 8, !tbaa !33
  %63 = getelementptr inbounds nuw %struct.IDADlsMemRec, ptr %62, i32 0, i32 0
  store i32 1, ptr %63, align 8, !tbaa !35
  %64 = load ptr, ptr %7, align 8, !tbaa !33
  %65 = getelementptr inbounds nuw %struct.IDADlsMemRec, ptr %64, i32 0, i32 5
  store i32 1, ptr %65, align 8, !tbaa !39
  %66 = load ptr, ptr %7, align 8, !tbaa !33
  %67 = getelementptr inbounds nuw %struct.IDADlsMemRec, ptr %66, i32 0, i32 6
  store ptr null, ptr %67, align 8, !tbaa !40
  %68 = load ptr, ptr %7, align 8, !tbaa !33
  %69 = getelementptr inbounds nuw %struct.IDADlsMemRec, ptr %68, i32 0, i32 8
  store ptr null, ptr %69, align 8, !tbaa !41
  %70 = load ptr, ptr %7, align 8, !tbaa !33
  %71 = getelementptr inbounds nuw %struct.IDADlsMemRec, ptr %70, i32 0, i32 14
  store i64 0, ptr %71, align 8, !tbaa !42
  %72 = load ptr, ptr %6, align 8, !tbaa !9
  %73 = getelementptr inbounds nuw %struct.IDAMemRec, ptr %72, i32 0, i32 179
  store i32 1, ptr %73, align 8, !tbaa !43
  %74 = load i64, ptr %5, align 8, !tbaa !7
  %75 = load ptr, ptr %7, align 8, !tbaa !33
  %76 = getelementptr inbounds nuw %struct.IDADlsMemRec, ptr %75, i32 0, i32 1
  store i64 %74, ptr %76, align 8, !tbaa !44
  %77 = load ptr, ptr %7, align 8, !tbaa !33
  %78 = getelementptr inbounds nuw %struct.IDADlsMemRec, ptr %77, i32 0, i32 9
  store ptr null, ptr %78, align 8, !tbaa !45
  %79 = load i64, ptr %5, align 8, !tbaa !7
  %80 = load i64, ptr %5, align 8, !tbaa !7
  %81 = call ptr @NewDenseMat(i64 noundef %79, i64 noundef %80)
  %82 = load ptr, ptr %7, align 8, !tbaa !33
  %83 = getelementptr inbounds nuw %struct.IDADlsMemRec, ptr %82, i32 0, i32 9
  store ptr %81, ptr %83, align 8, !tbaa !45
  %84 = load ptr, ptr %7, align 8, !tbaa !33
  %85 = getelementptr inbounds nuw %struct.IDADlsMemRec, ptr %84, i32 0, i32 9
  %86 = load ptr, ptr %85, align 8, !tbaa !45
  %87 = icmp eq ptr %86, null
  br i1 %87, label %88, label %91

88:                                               ; preds = %61
  %89 = load ptr, ptr %6, align 8, !tbaa !9
  call void (ptr, i32, ptr, ptr, ptr, ...) @IDAProcessError(ptr noundef %89, i32 noundef -4, ptr noundef @.str, ptr noundef @.str.1, ptr noundef @.str.4)
  %90 = load ptr, ptr %7, align 8, !tbaa !33
  call void @free(ptr noundef %90) #5
  store ptr null, ptr %7, align 8, !tbaa !33
  store i32 -4, ptr %3, align 4
  store i32 1, ptr %9, align 4
  br label %112

91:                                               ; preds = %61
  %92 = load ptr, ptr %7, align 8, !tbaa !33
  %93 = getelementptr inbounds nuw %struct.IDADlsMemRec, ptr %92, i32 0, i32 11
  store ptr null, ptr %93, align 8, !tbaa !46
  %94 = load i64, ptr %5, align 8, !tbaa !7
  %95 = call ptr @NewLintArray(i64 noundef %94)
  %96 = load ptr, ptr %7, align 8, !tbaa !33
  %97 = getelementptr inbounds nuw %struct.IDADlsMemRec, ptr %96, i32 0, i32 11
  store ptr %95, ptr %97, align 8, !tbaa !46
  %98 = load ptr, ptr %7, align 8, !tbaa !33
  %99 = getelementptr inbounds nuw %struct.IDADlsMemRec, ptr %98, i32 0, i32 11
  %100 = load ptr, ptr %99, align 8, !tbaa !46
  %101 = icmp eq ptr %100, null
  br i1 %101, label %102, label %108

102:                                              ; preds = %91
  %103 = load ptr, ptr %6, align 8, !tbaa !9
  call void (ptr, i32, ptr, ptr, ptr, ...) @IDAProcessError(ptr noundef %103, i32 noundef -4, ptr noundef @.str, ptr noundef @.str.1, ptr noundef @.str.4)
  %104 = load ptr, ptr %7, align 8, !tbaa !33
  %105 = getelementptr inbounds nuw %struct.IDADlsMemRec, ptr %104, i32 0, i32 9
  %106 = load ptr, ptr %105, align 8, !tbaa !45
  call void @DestroyMat(ptr noundef %106)
  %107 = load ptr, ptr %7, align 8, !tbaa !33
  call void @free(ptr noundef %107) #5
  store ptr null, ptr %7, align 8, !tbaa !33
  store i32 -4, ptr %3, align 4
  store i32 1, ptr %9, align 4
  br label %112

108:                                              ; preds = %91
  %109 = load ptr, ptr %7, align 8, !tbaa !33
  %110 = load ptr, ptr %6, align 8, !tbaa !9
  %111 = getelementptr inbounds nuw %struct.IDAMemRec, ptr %110, i32 0, i32 176
  store ptr %109, ptr %111, align 8, !tbaa !47
  store i32 0, ptr %3, align 4
  store i32 1, ptr %9, align 4
  br label %112

112:                                              ; preds = %108, %102, %88, %59, %32, %12
  call void @llvm.lifetime.end.p0(i64 4, ptr %8) #5
  call void @llvm.lifetime.end.p0(i64 8, ptr %7) #5
  call void @llvm.lifetime.end.p0(i64 8, ptr %6) #5
  %113 = load i32, ptr %3, align 4
  ret i32 %113
}