; Function Attrs: nounwind uwtable
define range(i32 -4, 1) i32 @IDADense(ptr noundef %0, i64 noundef %1) local_unnamed_addr #0 {
  %3 = icmp eq ptr %0, null
  br i1 %3, label %4, label %5

4:                                                ; preds = %2
  tail call void (ptr, i32, ptr, ptr, ptr, ...) @IDAProcessError(ptr noundef null, i32 noundef -1, ptr noundef nonnull @.str, ptr noundef nonnull @.str.1, ptr noundef nonnull @.str.2) #7
  br label %49

5:                                                ; preds = %2
  %6 = getelementptr inbounds nuw i8, ptr %0, i64 672
  %7 = load ptr, ptr %6, align 8, !tbaa !3
  %8 = getelementptr inbounds nuw i8, ptr %7, i64 8
  %9 = load ptr, ptr %8, align 8, !tbaa !17
  %10 = getelementptr inbounds nuw i8, ptr %9, i64 32
  %11 = load ptr, ptr %10, align 8, !tbaa !20
  %12 = icmp eq ptr %11, null
  br i1 %12, label %17, label %13

13:                                               ; preds = %5
  %14 = getelementptr inbounds nuw i8, ptr %9, i64 40
  %15 = load ptr, ptr %14, align 8, !tbaa !22
  %16 = icmp eq ptr %15, null
  br i1 %16, label %17, label %18

17:                                               ; preds = %13, %5
  tail call void (ptr, i32, ptr, ptr, ptr, ...) @IDAProcessError(ptr noundef nonnull %0, i32 noundef -3, ptr noundef nonnull @.str, ptr noundef nonnull @.str.1, ptr noundef nonnull @.str.3) #7
  br label %49

18:                                               ; preds = %13
  %19 = getelementptr inbounds nuw i8, ptr %0, i64 1624
  %20 = load ptr, ptr %19, align 8, !tbaa !23
  %.not = icmp eq ptr %20, null
  br i1 %.not, label %23, label %21

21:                                               ; preds = %18
  %22 = tail call i32 %20(ptr noundef nonnull %0) #7
  br label %23

23:                                               ; preds = %21, %18
  %24 = getelementptr inbounds nuw i8, ptr %0, i64 1592
  store ptr @IDADenseInit, ptr %24, align 8, !tbaa !24
  %25 = getelementptr inbounds nuw i8, ptr %0, i64 1600
  store ptr @IDADenseSetup, ptr %25, align 8, !tbaa !25
  %26 = getelementptr inbounds nuw i8, ptr %0, i64 1608
  store ptr @IDADenseSolve, ptr %26, align 8, !tbaa !26
  %27 = getelementptr inbounds nuw i8, ptr %0, i64 1616
  store ptr null, ptr %27, align 8, !tbaa !27
  store ptr @IDADenseFree, ptr %19, align 8, !tbaa !23
  %28 = tail call noalias dereferenceable_or_null(120) ptr @malloc(i64 noundef 120) #8
  %29 = icmp eq ptr %28, null
  br i1 %29, label %30, label %31

30:                                               ; preds = %23
  tail call void (ptr, i32, ptr, ptr, ptr, ...) @IDAProcessError(ptr noundef nonnull %0, i32 noundef -4, ptr noundef nonnull @.str, ptr noundef nonnull @.str.1, ptr noundef nonnull @.str.4) #7
  br label %49

31:                                               ; preds = %23
  store i32 1, ptr %28, align 8, !tbaa !28
  %32 = getelementptr inbounds nuw i8, ptr %28, i64 40
  store i32 1, ptr %32, align 8, !tbaa !32
  %33 = getelementptr inbounds nuw i8, ptr %28, i64 48
  store ptr null, ptr %33, align 8, !tbaa !33
  %34 = getelementptr inbounds nuw i8, ptr %28, i64 64
  store ptr null, ptr %34, align 8, !tbaa !34
  %35 = getelementptr inbounds nuw i8, ptr %28, i64 112
  store i64 0, ptr %35, align 8, !tbaa !35
  %36 = getelementptr inbounds nuw i8, ptr %0, i64 1648
  store i32 1, ptr %36, align 8, !tbaa !36
  %37 = getelementptr inbounds nuw i8, ptr %28, i64 8
  store i64 %1, ptr %37, align 8, !tbaa !37
  %38 = getelementptr inbounds nuw i8, ptr %28, i64 72
  %39 = tail call ptr @NewDenseMat(i64 noundef %1, i64 noundef %1) #7
  store ptr %39, ptr %38, align 8, !tbaa !38
  %40 = icmp eq ptr %39, null
  br i1 %40, label %41, label %42

41:                                               ; preds = %31
  tail call void (ptr, i32, ptr, ptr, ptr, ...) @IDAProcessError(ptr noundef nonnull %0, i32 noundef -4, ptr noundef nonnull @.str, ptr noundef nonnull @.str.1, ptr noundef nonnull @.str.4) #7
  tail call void @free(ptr noundef nonnull %28) #7
  br label %49

42:                                               ; preds = %31
  %43 = getelementptr inbounds nuw i8, ptr %28, i64 88
  %44 = tail call ptr @NewLintArray(i64 noundef %1) #7
  store ptr %44, ptr %43, align 8, !tbaa !39
  %45 = icmp eq ptr %44, null
  br i1 %45, label %46, label %47

46:                                               ; preds = %42
  tail call void (ptr, i32, ptr, ptr, ptr, ...) @IDAProcessError(ptr noundef nonnull %0, i32 noundef -4, ptr noundef nonnull @.str, ptr noundef nonnull @.str.1, ptr noundef nonnull @.str.4) #7
  tail call void @DestroyMat(ptr noundef nonnull %39) #7
  tail call void @free(ptr noundef nonnull %28) #7
  br label %49

47:                                               ; preds = %42
  %48 = getelementptr inbounds nuw i8, ptr %0, i64 1632
  store ptr %28, ptr %48, align 8, !tbaa !40
  br label %49

49:                                               ; preds = %47, %46, %41, %30, %17, %4
  %.0 = phi i32 [ -1, %4 ], [ -3, %17 ], [ -4, %30 ], [ -4, %41 ], [ -4, %46 ], [ 0, %47 ]
  ret i32 %.0
}